target datalayout = "e-m:e-p270:32:32-p271:32:32-p272:64:64-i64:64-i128:128-f80:128-n8:16:32:64-S128"
target triple = "x86_64-pc-linux-gnu"

%struct.transcoder_entry_t = type { ptr, ptr, ptr, ptr }

@transcoder_table = internal global ptr null, align 8

; Function Attrs: nounwind sspstrong uwtable
define internal ptr @make_transcoder_entry(ptr noundef %0, ptr noundef %1) #0 {
  %3 = alloca ptr, align 8
  %4 = alloca ptr, align 8
  %5 = alloca i64, align 8
  %6 = alloca ptr, align 8
  %7 = alloca ptr, align 8
  store ptr %0, ptr %3, align 8, !tbaa !21
  store ptr %1, ptr %4, align 8, !tbaa !21
  call void @llvm.lifetime.start.p0(i64 8, ptr %5) #25
  call void @llvm.lifetime.start.p0(i64 8, ptr %6) #25
  %8 = load ptr, ptr @transcoder_table, align 8, !tbaa !7
  %9 = load ptr, ptr %3, align 8, !tbaa !21
  %10 = ptrtoint ptr %9 to i64
  %11 = call i32 @rb_st_lookup(ptr noundef %8, i64 noundef %10, ptr noundef %5)
  %12 = icmp ne i32 %11, 0
  br i1 %12, label %20, label %13

13:                                               ; preds = %2
  %14 = call ptr @rb_st_init_strcasetable()
  %15 = ptrtoint ptr %14 to i64
  store i64 %15, ptr %5, align 8, !tbaa !12
  %16 = load ptr, ptr @transcoder_table, align 8, !tbaa !7
  %17 = load ptr, ptr %3, align 8, !tbaa !21
  %18 = ptrtoint ptr %17 to i64
  %19 = load i64, ptr %5, align 8, !tbaa !12
  call void @rb_st_add_direct(ptr noundef %16, i64 noundef %18, i64 noundef %19)
  br label %20

20:                                               ; preds = %13, %2
  %21 = load i64, ptr %5, align 8, !tbaa !12
  %22 = inttoptr i64 %21 to ptr
  store ptr %22, ptr %6, align 8, !tbaa !7
  %23 = load ptr, ptr %6, align 8, !tbaa !7
  %24 = load ptr, ptr %4, align 8, !tbaa !21
  %25 = ptrtoint ptr %24 to i64
  %26 = call i32 @rb_st_lookup(ptr noundef %23, i64 noundef %25, ptr noundef %5)
  %27 = icmp ne i32 %26, 0
  br i1 %27, label %46, label %28

28:                                               ; preds = %20
  call void @llvm.lifetime.start.p0(i64 8, ptr %7) #25
  %29 = call noalias nonnull ptr @ruby_xmalloc(i64 noundef 32) #27
  store ptr %29, ptr %7, align 8, !tbaa !23
  %30 = load ptr, ptr %3, align 8, !tbaa !21
  %31 = load ptr, ptr %7, align 8, !tbaa !23
  %32 = getelementptr inbounds nuw %struct.transcoder_entry_t, ptr %31, i32 0, i32 0
  store ptr %30, ptr %32, align 8, !tbaa !26
  %33 = load ptr, ptr %4, align 8, !tbaa !21
  %34 = load ptr, ptr %7, align 8, !tbaa !23
  %35 = getelementptr inbounds nuw %struct.transcoder_entry_t, ptr %34, i32 0, i32 1
  store ptr %33, ptr %35, align 8, !tbaa !27
  %36 = load ptr, ptr %7, align 8, !tbaa !23
  %37 = getelementptr inbounds nuw %struct.transcoder_entry_t, ptr %36, i32 0, i32 2
  store ptr null, ptr %37, align 8, !tbaa !28
  %38 = load ptr, ptr %7, align 8, !tbaa !23
  %39 = getelementptr inbounds nuw %struct.transcoder_entry_t, ptr %38, i32 0, i32 3
  store ptr null, ptr %39, align 8, !tbaa !24
  %40 = load ptr, ptr %7, align 8, !tbaa !23
  %41 = ptrtoint ptr %40 to i64
  store i64 %41, ptr %5, align 8, !tbaa !12
  %42 = load ptr, ptr %6, align 8, !tbaa !7
  %43 = load ptr, ptr %4, align 8, !tbaa !21
  %44 = ptrtoint ptr %43 to i64
  %45 = load i64, ptr %5, align 8, !tbaa !12
  call void @rb_st_add_direct(ptr noundef %42, i64 noundef %44, i64 noundef %45)
  call void @llvm.lifetime.end.p0(i64 8, ptr %7) #25
  br label %46

46:                                               ; preds = %28, %20
  %47 = load i64, ptr %5, align 8, !tbaa !12
  %48 = inttoptr i64 %47 to ptr
  call void @llvm.lifetime.end.p0(i64 8, ptr %6) #25
  call void @llvm.lifetime.end.p0(i64 8, ptr %5) #25
  ret ptr %48
}