; Function Attrs: nounwind sspstrong uwtable
define internal fastcc ptr @make_transcoder_entry(ptr noundef %0, ptr noundef %1) unnamed_addr #0 {
  %3 = alloca i64, align 8
  call void @llvm.lifetime.start.p0(i64 8, ptr nonnull %3) #22
  %4 = load ptr, ptr @transcoder_table, align 8, !tbaa !7
  %5 = ptrtoint ptr %0 to i64
  %6 = call i32 @rb_st_lookup(ptr noundef %4, i64 noundef %5, ptr noundef nonnull %3) #22
  %.not = icmp eq i32 %6, 0
  br i1 %.not, label %7, label %11

7:                                                ; preds = %2
  %8 = call ptr @rb_st_init_strcasetable() #22
  %9 = ptrtoint ptr %8 to i64
  store i64 %9, ptr %3, align 8, !tbaa !22
  %10 = load ptr, ptr @transcoder_table, align 8, !tbaa !7
  call void @rb_st_add_direct(ptr noundef %10, i64 noundef %5, i64 noundef %9) #22
  br label %11

11:                                               ; preds = %7, %2
  %12 = load i64, ptr %3, align 8, !tbaa !22
  %13 = inttoptr i64 %12 to ptr
  %14 = ptrtoint ptr %1 to i64
  %15 = call i32 @rb_st_lookup(ptr noundef %13, i64 noundef %14, ptr noundef nonnull %3) #22
  %.not13 = icmp eq i32 %15, 0
  br i1 %.not13, label %16, label %21

16:                                               ; preds = %11
  %17 = call noalias nonnull dereferenceable(32) ptr @ruby_xmalloc(i64 noundef 32) #24
  store ptr %0, ptr %17, align 8, !tbaa !23
  %18 = getelementptr inbounds nuw i8, ptr %17, i64 8
  store ptr %1, ptr %18, align 8, !tbaa !24
  %19 = getelementptr inbounds nuw i8, ptr %17, i64 16
  %20 = ptrtoint ptr %17 to i64
  call void @llvm.memset.p0.i64(ptr noundef nonnull align 8 dereferenceable(16) %19, i8 0, i64 16, i1 false)
  store i64 %20, ptr %3, align 8, !tbaa !22
  call void @rb_st_add_direct(ptr noundef %13, i64 noundef %14, i64 noundef %20) #22
  br label %21

21:                                               ; preds = %16, %11
  %22 = load i64, ptr %3, align 8, !tbaa !22
  %23 = inttoptr i64 %22 to ptr
  call void @llvm.lifetime.end.p0(i64 8, ptr nonnull %3) #22
  ret ptr %23
}